target datalayout = "e-m:e-p270:32:32-p271:32:32-p272:64:64-i64:64-i128:128-f80:128-n8:16:32:64-S128"
target triple = "x86_64-pc-linux-gnu"

%"class.cv::Size_" = type { i32, i32 }
%"class.std::__cxx11::basic_string" = type { %"struct.std::__cxx11::basic_string<char>::_Alloc_hider", i64, %union.anon }
%"struct.std::__cxx11::basic_string<char>::_Alloc_hider" = type { ptr }
%union.anon = type { i64, [8 x i8] }
%"class.cv::bgsegm::BackgroundSubtractorGMGImpl" = type { %"class.cv::bgsegm::BackgroundSubtractorGMG", i32, double, i32, i32, double, double, i32, i8, double, double, %"class.cv::Size_", i32, %"class.std::__cxx11::basic_string", %"class.cv::Mat_", %"class.cv::Mat_", %"class.cv::Mat_.0" }
%"class.cv::bgsegm::BackgroundSubtractorGMG" = type { %"class.cv::BackgroundSubtractor" }
%"class.cv::BackgroundSubtractor" = type { %"class.cv::Algorithm" }
%"class.cv::Algorithm" = type { ptr }
%"class.cv::Mat_" = type { %"class.cv::Mat" }
%"class.cv::Mat" = type { i32, i32, i32, i32, ptr, ptr, ptr, ptr, ptr, ptr, %"struct.cv::MatSize", %"struct.cv::MatStep" }
%"struct.cv::MatSize" = type { ptr }
%"struct.cv::MatStep" = type { ptr, [2 x i64] }
%"class.cv::Mat_.0" = type { %"class.cv::Mat" }

; Function Attrs: inlinehint mustprogress uwtable
define linkonce_odr hidden void @_ZN2cv4Mat_IfE7releaseEv(ptr noundef nonnull align 8 dereferenceable(96) %0) #5 comdat align 2 {
  %2 = alloca ptr, align 8
  store ptr %0, ptr %2, align 8, !tbaa !51
  %3 = load ptr, ptr %2, align 8
  call void @_ZN2cv3Mat7releaseEv(ptr noundef nonnull align 8 dereferenceable(96) %3)
  %4 = getelementptr inbounds nuw %"class.cv::Mat", ptr %3, i32 0, i32 0
  %5 = load i32, ptr %4, align 8, !tbaa !107
  %6 = and i32 %5, -4096
  %7 = add nsw i32 %6, 5
  %8 = getelementptr inbounds nuw %"class.cv::Mat", ptr %3, i32 0, i32 0
  store i32 %7, ptr %8, align 8, !tbaa !107
  ret void
}

; Function Attrs: inlinehint mustprogress uwtable
define linkonce_odr hidden void @_ZN2cv4Mat_IiE7releaseEv(ptr noundef nonnull align 8 dereferenceable(96) %0) #5 comdat align 2 {
  %2 = alloca ptr, align 8
  store ptr %0, ptr %2, align 8, !tbaa !45
  %3 = load ptr, ptr %2, align 8
  call void @_ZN2cv3Mat7releaseEv(ptr noundef nonnull align 8 dereferenceable(96) %3)
  %4 = getelementptr inbounds nuw %"class.cv::Mat", ptr %3, i32 0, i32 0
  %5 = load i32, ptr %4, align 8, !tbaa !107
  %6 = and i32 %5, -4096
  %7 = add nsw i32 %6, 4
  %8 = getelementptr inbounds nuw %"class.cv::Mat", ptr %3, i32 0, i32 0
  store i32 %7, ptr %8, align 8, !tbaa !107
  ret void
}

; Function Attrs: inlinehint mustprogress nounwind uwtable
define linkonce_odr hidden void @_ZN2cv5Size_IiEC2Ev(ptr noundef nonnull align 4 dereferenceable(8) %0) unnamed_addr #6 comdat align 2 {
  %2 = alloca ptr, align 8
  store ptr %0, ptr %2, align 8, !tbaa !47
  %3 = load ptr, ptr %2, align 8
  %4 = getelementptr inbounds nuw %"class.cv::Size_", ptr %3, i32 0, i32 0
  store i32 0, ptr %4, align 4, !tbaa !49
  %5 = getelementptr inbounds nuw %"class.cv::Size_", ptr %3, i32 0, i32 1
  store i32 0, ptr %5, align 4, !tbaa !50
  ret void
}

; Function Attrs: mustprogress uwtable
define hidden void @_ZN2cv6bgsegm27BackgroundSubtractorGMGImpl7releaseEv(ptr noundef nonnull align 8 dereferenceable(408) %0) #0 align 2 {
  %2 = alloca ptr, align 8
  %3 = alloca %"class.cv::Size_", align 4
  store ptr %0, ptr %2, align 8, !tbaa !3
  %4 = load ptr, ptr %2, align 8
  call void @llvm.lifetime.start.p0(i64 8, ptr %3) #18
  call void @_ZN2cv5Size_IiEC2Ev(ptr noundef nonnull align 4 dereferenceable(8) %3)
  %5 = getelementptr inbounds nuw %"class.cv::bgsegm::BackgroundSubtractorGMGImpl", ptr %4, i32 0, i32 11
  call void @llvm.memcpy.p0.p0.i64(ptr align 8 %5, ptr align 4 %3, i64 8, i1 false), !tbaa.struct !37
  call void @llvm.lifetime.end.p0(i64 8, ptr %3) #18
  %6 = getelementptr inbounds nuw %"class.cv::bgsegm::BackgroundSubtractorGMGImpl", ptr %4, i32 0, i32 14
  call void @_ZN2cv4Mat_IiE7releaseEv(ptr noundef nonnull align 8 dereferenceable(96) %6)
  %7 = getelementptr inbounds nuw %"class.cv::bgsegm::BackgroundSubtractorGMGImpl", ptr %4, i32 0, i32 15
  call void @_ZN2cv4Mat_IiE7releaseEv(ptr noundef nonnull align 8 dereferenceable(96) %7)
  %8 = getelementptr inbounds nuw %"class.cv::bgsegm::BackgroundSubtractorGMGImpl", ptr %4, i32 0, i32 16
  call void @_ZN2cv4Mat_IfE7releaseEv(ptr noundef nonnull align 8 dereferenceable(96) %8)
  ret void
}