; Function Attrs: mustprogress uwtable
define hidden void @_ZN2cv6bgsegm27BackgroundSubtractorGMGImpl7releaseEv(ptr noundef nonnull align 8 dereferenceable(408) initializes((72, 80)) %0) local_unnamed_addr #0 align 2 {
  %2 = getelementptr inbounds nuw i8, ptr %0, i64 72
  store i64 0, ptr %2, align 8
  %3 = getelementptr inbounds nuw i8, ptr %0, i64 120
  tail call void @_ZN2cv3Mat7releaseEv(ptr noundef nonnull align 8 dereferenceable(96) %3)
  %4 = load i32, ptr %3, align 8, !tbaa !42
  %5 = and i32 %4, -4096
  %6 = or disjoint i32 %5, 4
  store i32 %6, ptr %3, align 8, !tbaa !42
  %7 = getelementptr inbounds nuw i8, ptr %0, i64 216
  tail call void @_ZN2cv3Mat7releaseEv(ptr noundef nonnull align 8 dereferenceable(96) %7)
  %8 = load i32, ptr %7, align 8, !tbaa !42
  %9 = and i32 %8, -4096
  %10 = or disjoint i32 %9, 4
  store i32 %10, ptr %7, align 8, !tbaa !42
  %11 = getelementptr inbounds nuw i8, ptr %0, i64 312
  tail call void @_ZN2cv3Mat7releaseEv(ptr noundef nonnull align 8 dereferenceable(96) %11)
  %12 = load i32, ptr %11, align 8, !tbaa !42
  %13 = and i32 %12, -4096
  %14 = or disjoint i32 %13, 5
  store i32 %14, ptr %11, align 8, !tbaa !42
  ret void
}